target datalayout = "e-m:e-p270:32:32-p271:32:32-p272:64:64-i64:64-i128:128-f80:128-n8:16:32:64-S128"
target triple = "x86_64-pc-linux-gnu"

%class.rational = type { %class.mpq }
%class.mpq = type { %class.mpz, %class.mpz }
%class.mpz = type { i32, i8, ptr }
%class.svector.9 = type { %class.vector.10 }
%class.vector.10 = type { ptr }
%"class.dd::pdd_manager" = type { %class.svector, %class.vector.0, %class.ptr_hashtable, %class.hashtable, %class.hashtable.3, %class.map, %class.svector.9, ptr, %class.svector.9, %class.svector.9, %class.svector.9, %class.svector.9, %class.small_object_allocator, %class.svector.9, i32, %class.svector.9, %class.svector.9, %class.svector.11, i8, i8, i32, i32, %class.svector.9, %class.svector.9, %class.rational, %class.rational, i32, %class.rational, %class.svector.9, i32, %class.svector.9, %class.svector.9, %class.rational, %class.rational }
%class.svector = type { %class.vector }
%class.vector = type { ptr }
%class.vector.0 = type { ptr }
%class.ptr_hashtable = type { %class.core_hashtable.base, [4 x i8] }
%class.core_hashtable.base = type <{ ptr, i32, i32, i32 }>
%class.hashtable = type { %class.core_hashtable.base.2, [4 x i8] }
%class.core_hashtable.base.2 = type <{ ptr, i32, i32, i32 }>
%class.hashtable.3 = type { %class.core_hashtable.base.5, [4 x i8] }
%class.core_hashtable.base.5 = type <{ ptr, i32, i32, i32 }>
%class.map = type { %class.table2map }
%class.table2map = type { %class.core_hashtable.7 }
%class.core_hashtable.7 = type <{ ptr, i32, i32, i32, [4 x i8] }>
%class.small_object_allocator = type { [32 x ptr], [32 x ptr], i64 }
%class.svector.11 = type { %class.vector.12 }
%class.vector.12 = type { ptr }
%"struct.dd::pdd_manager::scoped_push" = type <{ ptr, i32, [4 x i8] }>

@_ZTIN2dd11pdd_manager7mem_outE = linkonce_odr hidden constant { ptr, ptr } { ptr getelementptr inbounds (ptr, ptr @_ZTVN10__cxxabiv117__class_type_infoE, i64 2), ptr @_ZTSN2dd11pdd_manager7mem_outE }, comdat, align 8

; Function Attrs: mustprogress nounwind uwtable
define linkonce_odr hidden void @_ZN6vectorIjLb0EjE6shrinkEj(ptr noundef nonnull align 8 dereferenceable(8) %0, i32 noundef %1) #5 comdat align 2 {
  %3 = alloca ptr, align 8
  %4 = alloca i32, align 4
  store ptr %0, ptr %3, align 8, !tbaa !91
  store i32 %1, ptr %4, align 4, !tbaa !8
  %5 = load ptr, ptr %3, align 8
  %6 = getelementptr inbounds nuw %class.vector.10, ptr %5, i32 0, i32 0
  %7 = load ptr, ptr %6, align 8, !tbaa !94
  %8 = icmp ne ptr %7, null
  br i1 %8, label %9, label %14

9:                                                ; preds = %2
  %10 = load i32, ptr %4, align 4, !tbaa !8
  %11 = getelementptr inbounds nuw %class.vector.10, ptr %5, i32 0, i32 0
  %12 = load ptr, ptr %11, align 8, !tbaa !94
  %13 = getelementptr inbounds i32, ptr %12, i64 -1
  store i32 %10, ptr %13, align 4, !tbaa !8
  br label %15

14:                                               ; preds = %2
  br label %15

15:                                               ; preds = %14, %9
  ret void
}

; Function Attrs: mustprogress nounwind uwtable
define linkonce_odr hidden noundef i32 @_ZNK6vectorIjLb0EjE4sizeEv(ptr noundef nonnull align 8 dereferenceable(8) %0) #5 comdat align 2 {
  %2 = alloca i32, align 4
  %3 = alloca ptr, align 8
  store ptr %0, ptr %3, align 8, !tbaa !91
  %4 = load ptr, ptr %3, align 8
  %5 = getelementptr inbounds nuw %class.vector.10, ptr %4, i32 0, i32 0
  %6 = load ptr, ptr %5, align 8, !tbaa !94
  %7 = icmp eq ptr %6, null
  br i1 %7, label %8, label %9

8:                                                ; preds = %1
  store i32 0, ptr %2, align 4
  br label %14

9:                                                ; preds = %1
  %10 = getelementptr inbounds nuw %class.vector.10, ptr %4, i32 0, i32 0
  %11 = load ptr, ptr %10, align 8, !tbaa !94
  %12 = getelementptr inbounds i32, ptr %11, i64 -1
  %13 = load i32, ptr %12, align 4, !tbaa !8
  store i32 %13, ptr %2, align 4
  br label %14

14:                                               ; preds = %9, %8
  %15 = load i32, ptr %2, align 4
  ret i32 %15
}

; Function Attrs: mustprogress uwtable
define hidden void @_ZN2dd11pdd_manager6try_gcEv(ptr noundef nonnull align 8 dereferenceable(952) %0) #4 align 2 {
  %2 = alloca ptr, align 8
  store ptr %0, ptr %2, align 8, !tbaa !3
  %3 = load ptr, ptr %2, align 8
  call void @_ZN2dd11pdd_manager2gcEv(ptr noundef nonnull align 8 dereferenceable(952) %3)
  call void @_ZN2dd11pdd_manager14reset_op_cacheEv(ptr noundef nonnull align 8 dereferenceable(952) %3)
  ret void
}

; Function Attrs: mustprogress nounwind uwtable
define linkonce_odr hidden void @_ZN2dd11pdd_manager11scoped_pushD2Ev(ptr noundef nonnull align 8 dereferenceable(12) %0) unnamed_addr #5 comdat align 2 personality ptr @__gxx_personality_v0 {
  %2 = alloca ptr, align 8
  store ptr %0, ptr %2, align 8, !tbaa !178
  %3 = load ptr, ptr %2, align 8
  %4 = getelementptr inbounds nuw %"struct.dd::pdd_manager::scoped_push", ptr %3, i32 0, i32 0
  %5 = load ptr, ptr %4, align 8, !tbaa !185
  %6 = getelementptr inbounds nuw %"class.dd::pdd_manager", ptr %5, i32 0, i32 6
  %7 = getelementptr inbounds nuw %"struct.dd::pdd_manager::scoped_push", ptr %3, i32 0, i32 1
  %8 = load i32, ptr %7, align 8, !tbaa !180
  invoke void @_ZN6vectorIjLb0EjE6shrinkEj(ptr noundef nonnull align 8 dereferenceable(8) %6, i32 noundef %8)
          to label %9 unwind label %10

9:                                                ; preds = %1
  ret void

10:                                               ; preds = %1
  %11 = landingpad { ptr, i32 }
          catch ptr null
  %12 = extractvalue { ptr, i32 } %11, 0
  call void @__clang_call_terminate(ptr %12) #21
  unreachable
}

; Function Attrs: mustprogress uwtable
define linkonce_odr hidden void @_ZN2dd11pdd_manager11scoped_pushC2ERS0_(ptr noundef nonnull align 8 dereferenceable(12) %0, ptr noundef nonnull align 8 dereferenceable(952) %1) unnamed_addr #4 comdat align 2 {
  %3 = alloca ptr, align 8
  %4 = alloca ptr, align 8
  store ptr %0, ptr %3, align 8, !tbaa !178
  store ptr %1, ptr %4, align 8, !tbaa !3
  %5 = load ptr, ptr %3, align 8
  %6 = getelementptr inbounds nuw %"struct.dd::pdd_manager::scoped_push", ptr %5, i32 0, i32 0
  %7 = load ptr, ptr %4, align 8, !tbaa !3
  store ptr %7, ptr %6, align 8, !tbaa !3
  %8 = getelementptr inbounds nuw %"struct.dd::pdd_manager::scoped_push", ptr %5, i32 0, i32 1
  %9 = load ptr, ptr %4, align 8, !tbaa !3
  %10 = getelementptr inbounds nuw %"class.dd::pdd_manager", ptr %9, i32 0, i32 6
  %11 = call noundef i32 @_ZNK6vectorIjLb0EjE4sizeEv(ptr noundef nonnull align 8 dereferenceable(8) %10)
  store i32 %11, ptr %8, align 8, !tbaa !180
  ret void
}

; Function Attrs: mustprogress uwtable
define hidden noundef i32 @_ZN2dd11pdd_manager5applyEjjNS0_6pdd_opE(ptr noundef nonnull align 8 dereferenceable(952) %0, i32 noundef %1, i32 noundef %2, i32 noundef %3) #4 align 2 personality ptr @__gxx_personality_v0 {
  %5 = alloca ptr, align 8
  %6 = alloca i32, align 4
  %7 = alloca i32, align 4
  %8 = alloca i32, align 4
  %9 = alloca i32, align 4
  %10 = alloca %"struct.dd::pdd_manager::scoped_push", align 8
  %11 = alloca ptr, align 8
  %12 = alloca i32, align 4
  %13 = alloca ptr, align 8
  store ptr %0, ptr %5, align 8, !tbaa !3
  store i32 %1, ptr %6, align 4, !tbaa !8
  store i32 %2, ptr %7, align 4, !tbaa !8
  store i32 %3, ptr %8, align 4, !tbaa !150
  %14 = load ptr, ptr %5, align 8
  call void @llvm.lifetime.start.p0(i64 4, ptr %9) #3
  store i32 0, ptr %9, align 4, !tbaa !8
  call void @llvm.lifetime.start.p0(i64 16, ptr %10) #3
  call void @_ZN2dd11pdd_manager11scoped_pushC2ERS0_(ptr noundef nonnull align 8 dereferenceable(12) %10, ptr noundef nonnull align 8 dereferenceable(952) %14)
  br label %15

15:                                               ; preds = %48, %4
  br label %16

16:                                               ; preds = %15
  %17 = load i32, ptr %6, align 4, !tbaa !8
  %18 = load i32, ptr %7, align 4, !tbaa !8
  %19 = load i32, ptr %8, align 4, !tbaa !150
  %20 = invoke noundef i32 @_ZN2dd11pdd_manager9apply_recEjjNS0_6pdd_opE(ptr noundef nonnull align 8 dereferenceable(952) %14, i32 noundef %17, i32 noundef %18, i32 noundef %19)
          to label %21 unwind label %22

21:                                               ; preds = %16
  call void @_ZN2dd11pdd_manager11scoped_pushD2Ev(ptr noundef nonnull align 8 dereferenceable(12) %10) #3
  call void @llvm.lifetime.end.p0(i64 16, ptr %10) #3
  call void @llvm.lifetime.end.p0(i64 4, ptr %9) #3
  ret i32 %20

22:                                               ; preds = %16
  %23 = landingpad { ptr, i32 }
          cleanup
          catch ptr @_ZTIN2dd11pdd_manager7mem_outE
  %24 = extractvalue { ptr, i32 } %23, 0
  store ptr %24, ptr %11, align 8
  %25 = extractvalue { ptr, i32 } %23, 1
  store i32 %25, ptr %12, align 4
  br label %26

26:                                               ; preds = %22
  %27 = load i32, ptr %12, align 4
  %28 = call i32 @llvm.eh.typeid.for.p0(ptr @_ZTIN2dd11pdd_manager7mem_outE) #3
  %29 = icmp eq i32 %27, %28
  br i1 %29, label %30, label %55

30:                                               ; preds = %26
  call void @llvm.lifetime.start.p0(i64 8, ptr %13) #3
  %31 = load ptr, ptr %11, align 8
  %32 = call ptr @__cxa_begin_catch(ptr %31) #3
  store ptr %32, ptr %13, align 8
  invoke void @_ZN2dd11pdd_manager6try_gcEv(ptr noundef nonnull align 8 dereferenceable(952) %14)
          to label %33 unwind label %40

33:                                               ; preds = %30
  %34 = load i32, ptr %9, align 4, !tbaa !8
  %35 = icmp ugt i32 %34, 0
  br i1 %35, label %36, label %44

36:                                               ; preds = %33
  %37 = getelementptr inbounds nuw %"class.dd::pdd_manager", ptr %14, i32 0, i32 20
  %38 = load i32, ptr %37, align 4, !tbaa !47
  %39 = mul i32 %38, 2
  store i32 %39, ptr %37, align 4, !tbaa !47
  br label %44

40:                                               ; preds = %30
  %41 = landingpad { ptr, i32 }
          cleanup
  %42 = extractvalue { ptr, i32 } %41, 0
  store ptr %42, ptr %11, align 8
  %43 = extractvalue { ptr, i32 } %41, 1
  store i32 %43, ptr %12, align 4
  invoke void @__cxa_end_catch()
          to label %53 unwind label %61

44:                                               ; preds = %36, %33
  %45 = load i32, ptr %9, align 4, !tbaa !8
  %46 = add i32 %45, 1
  store i32 %46, ptr %9, align 4, !tbaa !8
  invoke void @__cxa_end_catch()
          to label %47 unwind label %49

47:                                               ; preds = %44
  call void @llvm.lifetime.end.p0(i64 8, ptr %13) #3
  br label %48

48:                                               ; preds = %47
  br label %15, !llvm.loop !152

49:                                               ; preds = %44
  %50 = landingpad { ptr, i32 }
          cleanup
  %51 = extractvalue { ptr, i32 } %50, 0
  store ptr %51, ptr %11, align 8
  %52 = extractvalue { ptr, i32 } %50, 1
  store i32 %52, ptr %12, align 4
  br label %54

53:                                               ; preds = %40
  br label %54

54:                                               ; preds = %53, %49
  call void @llvm.lifetime.end.p0(i64 8, ptr %13) #3
  br label %55

55:                                               ; preds = %54, %26
  call void @_ZN2dd11pdd_manager11scoped_pushD2Ev(ptr noundef nonnull align 8 dereferenceable(12) %10) #3
  call void @llvm.lifetime.end.p0(i64 16, ptr %10) #3
  call void @llvm.lifetime.end.p0(i64 4, ptr %9) #3
  br label %56

56:                                               ; preds = %55
  %57 = load ptr, ptr %11, align 8
  %58 = load i32, ptr %12, align 4
  %59 = insertvalue { ptr, i32 } poison, ptr %57, 0
  %60 = insertvalue { ptr, i32 } %59, i32 %58, 1
  resume { ptr, i32 } %60

61:                                               ; preds = %40
  %62 = landingpad { ptr, i32 }
          catch ptr null
  %63 = extractvalue { ptr, i32 } %62, 0
  call void @__clang_call_terminate(ptr %63) #21
  unreachable
}