; Function Attrs: mustprogress uwtable
define hidden noundef i32 @_ZN2dd11pdd_manager5applyEjjNS0_6pdd_opE(ptr noundef nonnull align 8 dereferenceable(952) %0, i32 noundef %1, i32 noundef %2, i32 noundef %3) local_unnamed_addr #3 align 2 personality ptr @__gxx_personality_v0 {
  %5 = getelementptr inbounds nuw i8, ptr %0, i64 112
  %6 = load ptr, ptr %5, align 8, !tbaa !53
  %7 = icmp eq ptr %6, null
  br i1 %7, label %_ZN2dd11pdd_manager11scoped_pushC2ERS0_.exit, label %8

8:                                                ; preds = %4
  %9 = getelementptr inbounds i8, ptr %6, i64 -4
  %10 = load i32, ptr %9, align 4, !tbaa !83
  br label %_ZN2dd11pdd_manager11scoped_pushC2ERS0_.exit

_ZN2dd11pdd_manager11scoped_pushC2ERS0_.exit:     ; preds = %4, %8
  %.0.i.i = phi i32 [ %10, %8 ], [ 0, %4 ]
  %11 = getelementptr inbounds nuw i8, ptr %0, i64 724
  br label %12

12:                                               ; preds = %32, %_ZN2dd11pdd_manager11scoped_pushC2ERS0_.exit
  %.0 = phi i32 [ 0, %_ZN2dd11pdd_manager11scoped_pushC2ERS0_.exit ], [ %33, %32 ]
  %13 = invoke noundef i32 @_ZN2dd11pdd_manager9apply_recEjjNS0_6pdd_opE(ptr noundef nonnull align 8 dereferenceable(952) %0, i32 noundef %1, i32 noundef %2, i32 noundef %3)
          to label %14 unwind label %18

14:                                               ; preds = %12
  %15 = load ptr, ptr %5, align 8, !tbaa !53
  %.not.i.i = icmp eq ptr %15, null
  br i1 %.not.i.i, label %_ZN2dd11pdd_manager11scoped_pushD2Ev.exit, label %16

16:                                               ; preds = %14
  %17 = getelementptr inbounds i8, ptr %15, i64 -4
  store i32 %.0.i.i, ptr %17, align 4, !tbaa !83
  br label %_ZN2dd11pdd_manager11scoped_pushD2Ev.exit

_ZN2dd11pdd_manager11scoped_pushD2Ev.exit:        ; preds = %14, %16
  ret i32 %13

18:                                               ; preds = %12
  %19 = landingpad { ptr, i32 }
          cleanup
          catch ptr @_ZTIN2dd11pdd_manager7mem_outE
  %20 = extractvalue { ptr, i32 } %19, 1
  %21 = tail call i32 @llvm.eh.typeid.for.p0(ptr nonnull @_ZTIN2dd11pdd_manager7mem_outE) #29
  %22 = icmp eq i32 %20, %21
  br i1 %22, label %23, label %.loopexit

23:                                               ; preds = %18
  %24 = extractvalue { ptr, i32 } %19, 0
  %25 = tail call ptr @__cxa_begin_catch(ptr %24) #29
  invoke void @_ZN2dd11pdd_manager2gcEv(ptr noundef nonnull align 8 dereferenceable(952) %0)
          to label %.noexc unwind label %29

.noexc:                                           ; preds = %23
  invoke void @_ZN2dd11pdd_manager14reset_op_cacheEv(ptr noundef nonnull align 8 dereferenceable(952) %0)
          to label %_ZN2dd11pdd_manager6try_gcEv.exit unwind label %29

_ZN2dd11pdd_manager6try_gcEv.exit:                ; preds = %.noexc
  %.not = icmp eq i32 %.0, 0
  br i1 %.not, label %31, label %26

26:                                               ; preds = %_ZN2dd11pdd_manager6try_gcEv.exit
  %27 = load i32, ptr %11, align 4, !tbaa !77
  %28 = shl i32 %27, 1
  store i32 %28, ptr %11, align 4, !tbaa !77
  br label %31

29:                                               ; preds = %.noexc, %23
  %30 = landingpad { ptr, i32 }
          cleanup
  invoke void @__cxa_end_catch()
          to label %.loopexit unwind label %39

31:                                               ; preds = %26, %_ZN2dd11pdd_manager6try_gcEv.exit
  invoke void @__cxa_end_catch()
          to label %32 unwind label %34

32:                                               ; preds = %31
  %33 = add i32 %.0, 1
  br label %12, !llvm.loop !123

34:                                               ; preds = %31
  %35 = landingpad { ptr, i32 }
          cleanup
  br label %.loopexit

.loopexit:                                        ; preds = %18, %34, %29
  %.merged = phi { ptr, i32 } [ %35, %34 ], [ %30, %29 ], [ %19, %18 ]
  %36 = load ptr, ptr %5, align 8, !tbaa !53
  %.not.i.i15 = icmp eq ptr %36, null
  br i1 %.not.i.i15, label %_ZN2dd11pdd_manager11scoped_pushD2Ev.exit16, label %37

37:                                               ; preds = %.loopexit
  %38 = getelementptr inbounds i8, ptr %36, i64 -4
  store i32 %.0.i.i, ptr %38, align 4, !tbaa !83
  br label %_ZN2dd11pdd_manager11scoped_pushD2Ev.exit16

_ZN2dd11pdd_manager11scoped_pushD2Ev.exit16:      ; preds = %.loopexit, %37
  resume { ptr, i32 } %.merged

39:                                               ; preds = %29
  %40 = landingpad { ptr, i32 }
          catch ptr null
  %41 = extractvalue { ptr, i32 } %40, 0
  tail call void @__clang_call_terminate(ptr %41) #30
  unreachable
}